target datalayout = "e-m:e-p270:32:32-p271:32:32-p272:64:64-i64:64-i128:128-f80:128-n8:16:32:64-S128"
target triple = "x86_64-pc-linux-gnu"

%struct.ggml_backend_buffer_i = type { ptr, ptr, ptr, ptr, ptr, ptr, ptr, ptr, ptr }
%struct.ggml_backend_buffer = type { %struct.ggml_backend_buffer_i, ptr, ptr, i64, i32 }
%struct.ggml_backend_multi_buffer_context = type { ptr, i64 }

@.str = private unnamed_addr constant [123 x i8] c"generated/home/dtcxzyw/WorkSpace/Projects/compilers/llvm-opt-benchmark/bench/llama.cpp/llama.cpp/ggml/src/ggml-backend.cpp\00", align 1
@.str.1 = private unnamed_addr constant [23 x i8] c"GGML_ASSERT(%s) failed\00", align 1
@.str.18 = private unnamed_addr constant [44 x i8] c"ggml_backend_buffer_is_multi_buffer(buffer)\00", align 1

; Function Attrs: mustprogress nounwind uwtable
define zeroext i1 @ggml_backend_buffer_is_multi_buffer(ptr noundef %0) #4 {
  %2 = alloca ptr, align 8
  store ptr %0, ptr %2, align 8, !tbaa !24
  %3 = load ptr, ptr %2, align 8, !tbaa !24
  %4 = getelementptr inbounds nuw %struct.ggml_backend_buffer, ptr %3, i32 0, i32 0
  %5 = getelementptr inbounds nuw %struct.ggml_backend_buffer_i, ptr %4, i32 0, i32 0
  %6 = load ptr, ptr %5, align 8, !tbaa !33
  %7 = icmp eq ptr %6, @_ZL37ggml_backend_multi_buffer_free_bufferP19ggml_backend_buffer
  ret i1 %7
}

; Function Attrs: mustprogress uwtable
define void @ggml_backend_multi_buffer_set_usage(ptr noundef %0, i32 noundef %1) #0 {
  %3 = alloca ptr, align 8
  %4 = alloca i32, align 4
  %5 = alloca ptr, align 8
  %6 = alloca i64, align 8
  store ptr %0, ptr %3, align 8, !tbaa !24
  store i32 %1, ptr %4, align 4, !tbaa !38
  %7 = load ptr, ptr %3, align 8, !tbaa !24
  %8 = call zeroext i1 @ggml_backend_buffer_is_multi_buffer(ptr noundef %7)
  br i1 %8, label %10, label %9

9:                                                ; preds = %2
  call void (ptr, i32, ptr, ...) @ggml_abort(ptr noundef @.str, i32 noundef 587, ptr noundef @.str.1, ptr noundef @.str.18) #18
  unreachable

10:                                               ; preds = %2
  call void @llvm.lifetime.start.p0(i64 8, ptr %5) #15
  %11 = load ptr, ptr %3, align 8, !tbaa !24
  %12 = getelementptr inbounds nuw %struct.ggml_backend_buffer, ptr %11, i32 0, i32 2
  %13 = load ptr, ptr %12, align 8, !tbaa !21
  store ptr %13, ptr %5, align 8, !tbaa !39
  call void @llvm.lifetime.start.p0(i64 8, ptr %6) #15
  store i64 0, ptr %6, align 8, !tbaa !12
  br label %14

14:                                               ; preds = %29, %10
  %15 = load i64, ptr %6, align 8, !tbaa !12
  %16 = load ptr, ptr %5, align 8, !tbaa !39
  %17 = getelementptr inbounds nuw %struct.ggml_backend_multi_buffer_context, ptr %16, i32 0, i32 1
  %18 = load i64, ptr %17, align 8, !tbaa !41
  %19 = icmp ult i64 %15, %18
  br i1 %19, label %21, label %20

20:                                               ; preds = %14
  call void @llvm.lifetime.end.p0(i64 8, ptr %6) #15
  br label %32

21:                                               ; preds = %14
  %22 = load ptr, ptr %5, align 8, !tbaa !39
  %23 = getelementptr inbounds nuw %struct.ggml_backend_multi_buffer_context, ptr %22, i32 0, i32 0
  %24 = load ptr, ptr %23, align 8, !tbaa !45
  %25 = load i64, ptr %6, align 8, !tbaa !12
  %26 = getelementptr inbounds nuw ptr, ptr %24, i64 %25
  %27 = load ptr, ptr %26, align 8, !tbaa !24
  %28 = load i32, ptr %4, align 4, !tbaa !38
  call void @ggml_backend_buffer_set_usage(ptr noundef %27, i32 noundef %28)
  br label %29

29:                                               ; preds = %21
  %30 = load i64, ptr %6, align 8, !tbaa !12
  %31 = add i64 %30, 1
  store i64 %31, ptr %6, align 8, !tbaa !12
  br label %14, !llvm.loop !46

32:                                               ; preds = %20
  call void @llvm.lifetime.end.p0(i64 8, ptr %5) #15
  ret void
}