; Function Attrs: mustprogress uwtable
define void @ggml_backend_multi_buffer_set_usage(ptr noundef readonly captures(none) %0, i32 noundef %1) local_unnamed_addr #0 {
  %3 = load ptr, ptr %0, align 8, !tbaa !27
  %4 = icmp eq ptr %3, @_ZL37ggml_backend_multi_buffer_free_bufferP19ggml_backend_buffer
  br i1 %4, label %6, label %5

5:                                                ; preds = %2
  tail call void (ptr, i32, ptr, ...) @ggml_abort(ptr noundef nonnull @.str, i32 noundef 587, ptr noundef nonnull @.str.1, ptr noundef nonnull @.str.18) #24
  unreachable

6:                                                ; preds = %2
  %7 = getelementptr inbounds nuw i8, ptr %0, i64 80
  %8 = load ptr, ptr %7, align 8, !tbaa !19
  %9 = getelementptr inbounds nuw i8, ptr %8, i64 8
  %10 = load i64, ptr %9, align 8, !tbaa !31
  %.not = icmp eq i64 %10, 0
  br i1 %.not, label %._crit_edge, label %.lr.ph

._crit_edge:                                      ; preds = %.lr.ph, %6
  ret void

.lr.ph:                                           ; preds = %6, %.lr.ph
  %.07 = phi i64 [ %14, %.lr.ph ], [ 0, %6 ]
  %11 = load ptr, ptr %8, align 8, !tbaa !35
  %12 = getelementptr inbounds nuw ptr, ptr %11, i64 %.07
  %13 = load ptr, ptr %12, align 8, !tbaa !36
  tail call void @ggml_backend_buffer_set_usage(ptr noundef %13, i32 noundef %1)
  %14 = add nuw i64 %.07, 1
  %15 = load i64, ptr %9, align 8, !tbaa !31
  %16 = icmp ult i64 %14, %15
  br i1 %16, label %.lr.ph, label %._crit_edge, !llvm.loop !38
}